target datalayout = "e-m:e-p270:32:32-p271:32:32-p272:64:64-i64:64-i128:128-f80:128-n8:16:32:64-S128"
target triple = "x86_64-pc-linux-gnu"

%struct.pairingheap_node = type { ptr, ptr, ptr }
%struct.SnapshotData = type { i32, i32, i32, ptr, i32, ptr, i32, i8, i8, i8, i32, i32, ptr, i32, i32, %struct.pairingheap_node, i64 }

@FirstSnapshotSet = dso_local global i8 0, align 1
@CurrentSnapshot = internal global ptr null, align 8
@SecondarySnapshot = internal global ptr null, align 8

; Function Attrs: nounwind uwtable
define dso_local void @SnapshotSetCommandId(i32 noundef %0) #0 {
  %2 = alloca i32, align 4
  store i32 %0, ptr %2, align 4
  %3 = load i8, ptr @FirstSnapshotSet, align 1, !range !4, !noundef !5
  %4 = trunc i8 %3 to i1
  br i1 %4, label %6, label %5

5:                                                ; preds = %1
  br label %20

6:                                                ; preds = %1
  %7 = load ptr, ptr @CurrentSnapshot, align 8
  %8 = icmp ne ptr %7, null
  br i1 %8, label %9, label %13

9:                                                ; preds = %6
  %10 = load i32, ptr %2, align 4
  %11 = load ptr, ptr @CurrentSnapshot, align 8
  %12 = getelementptr inbounds nuw %struct.SnapshotData, ptr %11, i32 0, i32 10
  store i32 %10, ptr %12, align 8
  br label %13

13:                                               ; preds = %9, %6
  %14 = load ptr, ptr @SecondarySnapshot, align 8
  %15 = icmp ne ptr %14, null
  br i1 %15, label %16, label %20

16:                                               ; preds = %13
  %17 = load i32, ptr %2, align 4
  %18 = load ptr, ptr @SecondarySnapshot, align 8
  %19 = getelementptr inbounds nuw %struct.SnapshotData, ptr %18, i32 0, i32 10
  store i32 %17, ptr %19, align 8
  br label %20

20:                                               ; preds = %5, %16, %13
  ret void
}