; Function Attrs: mustprogress nofree norecurse nosync nounwind willreturn memory(readwrite, argmem: write, inaccessiblemem: none) uwtable
define dso_local void @SnapshotSetCommandId(i32 noundef %0) local_unnamed_addr #5 {
  %2 = load i8, ptr @FirstSnapshotSet, align 1, !range !4, !noundef !5
  %3 = trunc nuw i8 %2 to i1
  br i1 %3, label %4, label %12

4:                                                ; preds = %1
  %5 = load ptr, ptr @CurrentSnapshot, align 8
  %.not = icmp eq ptr %5, null
  br i1 %.not, label %8, label %6

6:                                                ; preds = %4
  %7 = getelementptr inbounds nuw i8, ptr %5, i64 48
  store i32 %0, ptr %7, align 8
  br label %8

8:                                                ; preds = %6, %4
  %9 = load ptr, ptr @SecondarySnapshot, align 8
  %.not3 = icmp eq ptr %9, null
  br i1 %.not3, label %12, label %10

10:                                               ; preds = %8
  %11 = getelementptr inbounds nuw i8, ptr %9, i64 48
  store i32 %0, ptr %11, align 8
  br label %12

12:                                               ; preds = %1, %10, %8
  ret void
}